target datalayout = "e-m:e-p270:32:32-p271:32:32-p272:64:64-i64:64-i128:128-f80:128-n8:16:32:64-S128"
target triple = "x86_64-pc-linux-gnu"

%struct._packet_info = type { ptr, ptr, i32, i32, %struct.nstime_t, %struct.nstime_t, %struct.nstime_t, i8, ptr, ptr, ptr, ptr, %struct._address, %struct._address, %struct._address, %struct._address, %struct._address, %struct._address, i32, ptr, i8, [3 x i8], %struct.anon, i32, i32, i32, i32, ptr, i8, ptr, ptr, i16, i16, i32, i32, i16, i32, i32, ptr, ptr, ptr, i8, i8, i16, i16, i16, i32, i16, i16, ptr, ptr, ptr, ptr, ptr, i32, i32 }
%struct.nstime_t = type { i64, i32 }
%struct._address = type { i32, i32, ptr, ptr }
%struct.anon = type { i8, [3 x i8] }
%struct.xtp_traffic_cntl = type { i64, i64, i32, i32, i64 }

@hf_xtp_tcntl_rseq = internal global i32 0, align 4
@hf_xtp_tcntl_alloc = internal global i32 0, align 4
@hf_xtp_tcntl_echo = internal global i32 0, align 4
@hf_xtp_tcntl_rsvd = internal global i32 0, align 4
@hf_xtp_tcntl_xkey = internal global i32 0, align 4
@ett_xtp_tcntl = internal global i32 0, align 4
@.str.189 = private unnamed_addr constant [14 x i8] c" Recv-Seq=%lu\00", align 1
@.str.190 = private unnamed_addr constant [11 x i8] c" Alloc=%lu\00", align 1
@.str.191 = private unnamed_addr constant [16 x i8] c", Recv-Seq: %lu\00", align 1
@.str.193 = private unnamed_addr constant [40 x i8] c", bogus length(%u, must be at least %u)\00", align 1
@.str.204 = private unnamed_addr constant [24 x i8] c"Traffic Control Segment\00", align 1

; Function Attrs: null_pointer_is_valid sspstrong uwtable
define internal i32 @dissect_xtp_traffic_cntl(ptr noundef %0, ptr noundef %1, ptr noundef %2, i32 noundef %3) #0 {
  %5 = alloca i32, align 4
  %6 = alloca ptr, align 8
  %7 = alloca ptr, align 8
  %8 = alloca ptr, align 8
  %9 = alloca i32, align 4
  %10 = alloca i32, align 4
  %11 = alloca i32, align 4
  %12 = alloca ptr, align 8
  %13 = alloca ptr, align 8
  %14 = alloca [1 x %struct.xtp_traffic_cntl], align 16
  %15 = alloca i32, align 4
  store ptr %0, ptr %6, align 8
  store ptr %1, ptr %7, align 8
  store ptr %2, ptr %8, align 8
  store i32 %3, ptr %9, align 4
  call void @llvm.lifetime.start.p0(i64 4, ptr %10) #5
  %16 = load ptr, ptr %6, align 8
  %17 = load i32, ptr %9, align 4
  %18 = call i32 @tvb_reported_length_remaining(ptr noundef %16, i32 noundef %17)
  store i32 %18, ptr %10, align 4
  call void @llvm.lifetime.start.p0(i64 4, ptr %11) #5
  %19 = load i32, ptr %9, align 4
  store i32 %19, ptr %11, align 4
  call void @llvm.lifetime.start.p0(i64 8, ptr %12) #5
  call void @llvm.lifetime.start.p0(i64 8, ptr %13) #5
  call void @llvm.lifetime.start.p0(i64 32, ptr %14) #5
  %20 = load ptr, ptr %8, align 8
  %21 = load ptr, ptr %6, align 8
  %22 = load i32, ptr %9, align 4
  %23 = load i32, ptr %10, align 4
  %24 = load i32, ptr @ett_xtp_tcntl, align 4
  %25 = call ptr @proto_tree_add_subtree(ptr noundef %20, ptr noundef %21, i32 noundef %22, i32 noundef %23, i32 noundef %24, ptr noundef %12, ptr noundef @.str.204)
  store ptr %25, ptr %13, align 8
  %26 = load i32, ptr %10, align 4
  %27 = icmp ult i32 %26, 32
  br i1 %27, label %28, label %31

28:                                               ; preds = %4
  %29 = load ptr, ptr %12, align 8
  %30 = load i32, ptr %10, align 4
  call void (ptr, ptr, ...) @proto_item_append_text(ptr noundef %29, ptr noundef @.str.193, i32 noundef %30, i32 noundef 32)
  store i32 0, ptr %5, align 4
  store i32 1, ptr %15, align 4
  br label %177

31:                                               ; preds = %4
  %32 = load ptr, ptr %6, align 8
  %33 = load i32, ptr %9, align 4
  %34 = call i32 @tvb_get_ntohl(ptr noundef %32, i32 noundef %33)
  %35 = zext i32 %34 to i64
  %36 = getelementptr inbounds [1 x %struct.xtp_traffic_cntl], ptr %14, i64 0, i64 0
  %37 = getelementptr inbounds nuw %struct.xtp_traffic_cntl, ptr %36, i32 0, i32 0
  store i64 %35, ptr %37, align 16
  %38 = getelementptr inbounds [1 x %struct.xtp_traffic_cntl], ptr %14, i64 0, i64 0
  %39 = getelementptr inbounds nuw %struct.xtp_traffic_cntl, ptr %38, i32 0, i32 0
  %40 = load i64, ptr %39, align 16
  %41 = shl i64 %40, 32
  store i64 %41, ptr %39, align 16
  %42 = load ptr, ptr %6, align 8
  %43 = load i32, ptr %9, align 4
  %44 = add i32 %43, 4
  %45 = call i32 @tvb_get_ntohl(ptr noundef %42, i32 noundef %44)
  %46 = zext i32 %45 to i64
  %47 = getelementptr inbounds [1 x %struct.xtp_traffic_cntl], ptr %14, i64 0, i64 0
  %48 = getelementptr inbounds nuw %struct.xtp_traffic_cntl, ptr %47, i32 0, i32 0
  %49 = load i64, ptr %48, align 16
  %50 = add i64 %49, %46
  store i64 %50, ptr %48, align 16
  %51 = load i32, ptr %9, align 4
  %52 = add i32 %51, 8
  store i32 %52, ptr %9, align 4
  %53 = load ptr, ptr %6, align 8
  %54 = load i32, ptr %9, align 4
  %55 = call i32 @tvb_get_ntohl(ptr noundef %53, i32 noundef %54)
  %56 = zext i32 %55 to i64
  %57 = getelementptr inbounds [1 x %struct.xtp_traffic_cntl], ptr %14, i64 0, i64 0
  %58 = getelementptr inbounds nuw %struct.xtp_traffic_cntl, ptr %57, i32 0, i32 1
  store i64 %56, ptr %58, align 8
  %59 = getelementptr inbounds [1 x %struct.xtp_traffic_cntl], ptr %14, i64 0, i64 0
  %60 = getelementptr inbounds nuw %struct.xtp_traffic_cntl, ptr %59, i32 0, i32 1
  %61 = load i64, ptr %60, align 8
  %62 = shl i64 %61, 32
  store i64 %62, ptr %60, align 8
  %63 = load ptr, ptr %6, align 8
  %64 = load i32, ptr %9, align 4
  %65 = add i32 %64, 4
  %66 = call i32 @tvb_get_ntohl(ptr noundef %63, i32 noundef %65)
  %67 = zext i32 %66 to i64
  %68 = getelementptr inbounds [1 x %struct.xtp_traffic_cntl], ptr %14, i64 0, i64 0
  %69 = getelementptr inbounds nuw %struct.xtp_traffic_cntl, ptr %68, i32 0, i32 1
  %70 = load i64, ptr %69, align 8
  %71 = add i64 %70, %67
  store i64 %71, ptr %69, align 8
  %72 = load i32, ptr %9, align 4
  %73 = add i32 %72, 8
  store i32 %73, ptr %9, align 4
  %74 = load ptr, ptr %6, align 8
  %75 = load i32, ptr %9, align 4
  %76 = call i32 @tvb_get_ntohl(ptr noundef %74, i32 noundef %75)
  %77 = getelementptr inbounds [1 x %struct.xtp_traffic_cntl], ptr %14, i64 0, i64 0
  %78 = getelementptr inbounds nuw %struct.xtp_traffic_cntl, ptr %77, i32 0, i32 2
  store i32 %76, ptr %78, align 16
  %79 = load i32, ptr %9, align 4
  %80 = add i32 %79, 4
  store i32 %80, ptr %9, align 4
  %81 = load ptr, ptr %6, align 8
  %82 = load i32, ptr %9, align 4
  %83 = call i32 @tvb_get_ntohl(ptr noundef %81, i32 noundef %82)
  %84 = getelementptr inbounds [1 x %struct.xtp_traffic_cntl], ptr %14, i64 0, i64 0
  %85 = getelementptr inbounds nuw %struct.xtp_traffic_cntl, ptr %84, i32 0, i32 3
  store i32 %83, ptr %85, align 4
  %86 = load i32, ptr %9, align 4
  %87 = add i32 %86, 4
  store i32 %87, ptr %9, align 4
  %88 = load ptr, ptr %6, align 8
  %89 = load i32, ptr %9, align 4
  %90 = call i32 @tvb_get_ntohl(ptr noundef %88, i32 noundef %89)
  %91 = zext i32 %90 to i64
  %92 = getelementptr inbounds [1 x %struct.xtp_traffic_cntl], ptr %14, i64 0, i64 0
  %93 = getelementptr inbounds nuw %struct.xtp_traffic_cntl, ptr %92, i32 0, i32 4
  store i64 %91, ptr %93, align 8
  %94 = getelementptr inbounds [1 x %struct.xtp_traffic_cntl], ptr %14, i64 0, i64 0
  %95 = getelementptr inbounds nuw %struct.xtp_traffic_cntl, ptr %94, i32 0, i32 4
  %96 = load i64, ptr %95, align 8
  %97 = shl i64 %96, 32
  store i64 %97, ptr %95, align 8
  %98 = load ptr, ptr %6, align 8
  %99 = load i32, ptr %9, align 4
  %100 = add i32 %99, 4
  %101 = call i32 @tvb_get_ntohl(ptr noundef %98, i32 noundef %100)
  %102 = zext i32 %101 to i64
  %103 = getelementptr inbounds [1 x %struct.xtp_traffic_cntl], ptr %14, i64 0, i64 0
  %104 = getelementptr inbounds nuw %struct.xtp_traffic_cntl, ptr %103, i32 0, i32 4
  %105 = load i64, ptr %104, align 8
  %106 = add i64 %105, %102
  store i64 %106, ptr %104, align 8
  %107 = load ptr, ptr %7, align 8
  %108 = getelementptr inbounds nuw %struct._packet_info, ptr %107, i32 0, i32 1
  %109 = load ptr, ptr %108, align 8
  %110 = getelementptr inbounds [1 x %struct.xtp_traffic_cntl], ptr %14, i64 0, i64 0
  %111 = getelementptr inbounds nuw %struct.xtp_traffic_cntl, ptr %110, i32 0, i32 0
  %112 = load i64, ptr %111, align 16
  call void (ptr, i32, ptr, ...) @col_append_fstr(ptr noundef %109, i32 noundef 25, ptr noundef @.str.189, i64 noundef %112)
  %113 = load ptr, ptr %7, align 8
  %114 = getelementptr inbounds nuw %struct._packet_info, ptr %113, i32 0, i32 1
  %115 = load ptr, ptr %114, align 8
  %116 = getelementptr inbounds [1 x %struct.xtp_traffic_cntl], ptr %14, i64 0, i64 0
  %117 = getelementptr inbounds nuw %struct.xtp_traffic_cntl, ptr %116, i32 0, i32 1
  %118 = load i64, ptr %117, align 8
  call void (ptr, i32, ptr, ...) @col_append_fstr(ptr noundef %115, i32 noundef 25, ptr noundef @.str.190, i64 noundef %118)
  %119 = load ptr, ptr %12, align 8
  %120 = getelementptr inbounds [1 x %struct.xtp_traffic_cntl], ptr %14, i64 0, i64 0
  %121 = getelementptr inbounds nuw %struct.xtp_traffic_cntl, ptr %120, i32 0, i32 0
  %122 = load i64, ptr %121, align 16
  call void (ptr, ptr, ...) @proto_item_append_text(ptr noundef %119, ptr noundef @.str.191, i64 noundef %122)
  %123 = load i32, ptr %11, align 4
  store i32 %123, ptr %9, align 4
  %124 = load ptr, ptr %13, align 8
  %125 = load i32, ptr @hf_xtp_tcntl_rseq, align 4
  %126 = load ptr, ptr %6, align 8
  %127 = load i32, ptr %9, align 4
  %128 = getelementptr inbounds [1 x %struct.xtp_traffic_cntl], ptr %14, i64 0, i64 0
  %129 = getelementptr inbounds nuw %struct.xtp_traffic_cntl, ptr %128, i32 0, i32 0
  %130 = load i64, ptr %129, align 16
  %131 = call ptr @proto_tree_add_uint64(ptr noundef %124, i32 noundef %125, ptr noundef %126, i32 noundef %127, i32 noundef 8, i64 noundef %130)
  %132 = load i32, ptr %9, align 4
  %133 = add i32 %132, 8
  store i32 %133, ptr %9, align 4
  %134 = load ptr, ptr %13, align 8
  %135 = load i32, ptr @hf_xtp_tcntl_alloc, align 4
  %136 = load ptr, ptr %6, align 8
  %137 = load i32, ptr %9, align 4
  %138 = getelementptr inbounds [1 x %struct.xtp_traffic_cntl], ptr %14, i64 0, i64 0
  %139 = getelementptr inbounds nuw %struct.xtp_traffic_cntl, ptr %138, i32 0, i32 1
  %140 = load i64, ptr %139, align 8
  %141 = call ptr @proto_tree_add_uint64(ptr noundef %134, i32 noundef %135, ptr noundef %136, i32 noundef %137, i32 noundef 8, i64 noundef %140)
  %142 = load i32, ptr %9, align 4
  %143 = add i32 %142, 4
  store i32 %143, ptr %9, align 4
  %144 = load ptr, ptr %13, align 8
  %145 = load i32, ptr @hf_xtp_tcntl_echo, align 4
  %146 = load ptr, ptr %6, align 8
  %147 = load i32, ptr %9, align 4
  %148 = getelementptr inbounds [1 x %struct.xtp_traffic_cntl], ptr %14, i64 0, i64 0
  %149 = getelementptr inbounds nuw %struct.xtp_traffic_cntl, ptr %148, i32 0, i32 2
  %150 = load i32, ptr %149, align 16
  %151 = call ptr @proto_tree_add_uint(ptr noundef %144, i32 noundef %145, ptr noundef %146, i32 noundef %147, i32 noundef 4, i32 noundef %150)
  %152 = load i32, ptr %9, align 4
  %153 = add i32 %152, 4
  store i32 %153, ptr %9, align 4
  %154 = load ptr, ptr %13, align 8
  %155 = load i32, ptr @hf_xtp_tcntl_rsvd, align 4
  %156 = load ptr, ptr %6, align 8
  %157 = load i32, ptr %9, align 4
  %158 = getelementptr inbounds [1 x %struct.xtp_traffic_cntl], ptr %14, i64 0, i64 0
  %159 = getelementptr inbounds nuw %struct.xtp_traffic_cntl, ptr %158, i32 0, i32 3
  %160 = load i32, ptr %159, align 4
  %161 = call ptr @proto_tree_add_uint(ptr noundef %154, i32 noundef %155, ptr noundef %156, i32 noundef %157, i32 noundef 4, i32 noundef %160)
  %162 = load i32, ptr %9, align 4
  %163 = add i32 %162, 4
  store i32 %163, ptr %9, align 4
  %164 = load ptr, ptr %13, align 8
  %165 = load i32, ptr @hf_xtp_tcntl_xkey, align 4
  %166 = load ptr, ptr %6, align 8
  %167 = load i32, ptr %9, align 4
  %168 = getelementptr inbounds [1 x %struct.xtp_traffic_cntl], ptr %14, i64 0, i64 0
  %169 = getelementptr inbounds nuw %struct.xtp_traffic_cntl, ptr %168, i32 0, i32 4
  %170 = load i64, ptr %169, align 8
  %171 = call ptr @proto_tree_add_uint64(ptr noundef %164, i32 noundef %165, ptr noundef %166, i32 noundef %167, i32 noundef 8, i64 noundef %170)
  %172 = load i32, ptr %9, align 4
  %173 = add i32 %172, 8
  store i32 %173, ptr %9, align 4
  %174 = load i32, ptr %9, align 4
  %175 = load i32, ptr %11, align 4
  %176 = sub i32 %174, %175
  store i32 %176, ptr %5, align 4
  store i32 1, ptr %15, align 4
  br label %177

177:                                              ; preds = %31, %28
  call void @llvm.lifetime.end.p0(i64 32, ptr %14) #5
  call void @llvm.lifetime.end.p0(i64 8, ptr %13) #5
  call void @llvm.lifetime.end.p0(i64 8, ptr %12) #5
  call void @llvm.lifetime.end.p0(i64 4, ptr %11) #5
  call void @llvm.lifetime.end.p0(i64 4, ptr %10) #5
  %178 = load i32, ptr %5, align 4
  ret i32 %178
}