; Function Attrs: null_pointer_is_valid sspstrong uwtable
define internal fastcc range(i32 0, 29) i32 @dissect_xtp_traffic_cntl(ptr noundef %0, ptr noundef readonly captures(none) %1, ptr noundef %2) unnamed_addr #0 {
  %4 = alloca ptr, align 8
  %5 = tail call i32 @tvb_reported_length_remaining(ptr noundef %0, i32 noundef 32)
  call void @llvm.lifetime.start.p0(i64 8, ptr nonnull %4) #7
  %6 = load i32, ptr @ett_xtp_tcntl, align 4
  %7 = call ptr @proto_tree_add_subtree(ptr noundef %2, ptr noundef %0, i32 noundef 32, i32 noundef %5, i32 noundef %6, ptr noundef nonnull %4, ptr noundef nonnull @.str.204)
  %8 = icmp ult i32 %5, 32
  br i1 %8, label %9, label %11

9:                                                ; preds = %3
  %10 = load ptr, ptr %4, align 8
  call void (ptr, ptr, ...) @proto_item_append_text(ptr noundef %10, ptr noundef nonnull @.str.193, i32 noundef %5, i32 noundef 32)
  br label %46

11:                                               ; preds = %3
  %12 = call i32 @tvb_get_ntohl(ptr noundef %0, i32 noundef 32)
  %13 = zext i32 %12 to i64
  %14 = shl nuw i64 %13, 32
  %15 = call i32 @tvb_get_ntohl(ptr noundef %0, i32 noundef 36)
  %16 = zext i32 %15 to i64
  %17 = or disjoint i64 %14, %16
  %18 = call i32 @tvb_get_ntohl(ptr noundef %0, i32 noundef 40)
  %19 = zext i32 %18 to i64
  %20 = shl nuw i64 %19, 32
  %21 = call i32 @tvb_get_ntohl(ptr noundef %0, i32 noundef 44)
  %22 = zext i32 %21 to i64
  %23 = or disjoint i64 %20, %22
  %24 = call i32 @tvb_get_ntohl(ptr noundef %0, i32 noundef 48)
  %25 = call i32 @tvb_get_ntohl(ptr noundef %0, i32 noundef 52)
  %26 = call i32 @tvb_get_ntohl(ptr noundef %0, i32 noundef 56)
  %27 = zext i32 %26 to i64
  %28 = shl nuw i64 %27, 32
  %29 = call i32 @tvb_get_ntohl(ptr noundef %0, i32 noundef 60)
  %30 = zext i32 %29 to i64
  %31 = or disjoint i64 %28, %30
  %32 = getelementptr inbounds nuw i8, ptr %1, i64 8
  %33 = load ptr, ptr %32, align 8
  call void (ptr, i32, ptr, ...) @col_append_fstr(ptr noundef %33, i32 noundef 25, ptr noundef nonnull @.str.189, i64 noundef %17)
  %34 = load ptr, ptr %32, align 8
  call void (ptr, i32, ptr, ...) @col_append_fstr(ptr noundef %34, i32 noundef 25, ptr noundef nonnull @.str.190, i64 noundef %23)
  %35 = load ptr, ptr %4, align 8
  call void (ptr, ptr, ...) @proto_item_append_text(ptr noundef %35, ptr noundef nonnull @.str.191, i64 noundef %17)
  %36 = load i32, ptr @hf_xtp_tcntl_rseq, align 4
  %37 = call ptr @proto_tree_add_uint64(ptr noundef %7, i32 noundef %36, ptr noundef %0, i32 noundef 32, i32 noundef 8, i64 noundef %17)
  %38 = load i32, ptr @hf_xtp_tcntl_alloc, align 4
  %39 = call ptr @proto_tree_add_uint64(ptr noundef %7, i32 noundef %38, ptr noundef %0, i32 noundef 40, i32 noundef 8, i64 noundef %23)
  %40 = load i32, ptr @hf_xtp_tcntl_echo, align 4
  %41 = call ptr @proto_tree_add_uint(ptr noundef %7, i32 noundef %40, ptr noundef %0, i32 noundef 44, i32 noundef 4, i32 noundef %24)
  %42 = load i32, ptr @hf_xtp_tcntl_rsvd, align 4
  %43 = call ptr @proto_tree_add_uint(ptr noundef %7, i32 noundef %42, ptr noundef %0, i32 noundef 48, i32 noundef 4, i32 noundef %25)
  %44 = load i32, ptr @hf_xtp_tcntl_xkey, align 4
  %45 = call ptr @proto_tree_add_uint64(ptr noundef %7, i32 noundef %44, ptr noundef %0, i32 noundef 52, i32 noundef 8, i64 noundef %31)
  br label %46

46:                                               ; preds = %11, %9
  %.0 = phi i32 [ 0, %9 ], [ 28, %11 ]
  call void @llvm.lifetime.end.p0(i64 8, ptr nonnull %4) #7
  ret i32 %.0
}